
uevent_kernel.ko:     file format elf32-littlearm


Disassembly of section .text:

00000000 <stringlength>:
   0:	e1a0c00d 	mov	ip, sp
   4:	e92dd800 	push	{fp, ip, lr, pc}
   8:	e24cb004 	sub	fp, ip, #4
   c:	e3a03000 	mov	r3, #0
  10:	ea000000 	b	18 <stringlength+0x18>
  14:	e2833001 	add	r3, r3, #1
  18:	e7d02003 	ldrb	r2, [r0, r3]
  1c:	e3520000 	cmp	r2, #0
  20:	1afffffb 	bne	14 <stringlength+0x14>
  24:	e1a00003 	mov	r0, r3
  28:	e89da800 	ldm	sp, {fp, sp, pc}

0000002c <sendnlmsg>:
  2c:	e1a0c00d 	mov	ip, sp
  30:	e92dddf0 	push	{r4, r5, r6, r7, r8, sl, fp, ip, lr, pc}
  34:	e24cb004 	sub	fp, ip, #4
  38:	e2504000 	subs	r4, r0, #0
  3c:	e1a05001 	mov	r5, r1
  40:	089dadf0 	ldmeq	sp, {r4, r5, r6, r7, r8, sl, fp, sp, pc}
  44:	e59f30dc 	ldr	r3, [pc, #220]	; 128 <sendnlmsg+0xfc>
  48:	e5933000 	ldr	r3, [r3]
  4c:	e3530000 	cmp	r3, #0
  50:	089dadf0 	ldmeq	sp, {r4, r5, r6, r7, r8, sl, fp, sp, pc}
  54:	e59f00d0 	ldr	r0, [pc, #208]	; 12c <sendnlmsg+0x100>
  58:	ebfffffe 	bl	0 <printk>
  5c:	e3a00e41 	mov	r0, #1040	; 0x410
  60:	e3a010d0 	mov	r1, #208	; 0xd0
  64:	e3a02000 	mov	r2, #0
  68:	e3e03000 	mvn	r3, #0
  6c:	ebfffffe 	bl	0 <__alloc_skb>
  70:	e2506000 	subs	r6, r0, #0
  74:	1a000001 	bne	80 <sendnlmsg+0x54>
  78:	e59f00b0 	ldr	r0, [pc, #176]	; 130 <sendnlmsg+0x104>
  7c:	ebfffffe 	bl	0 <printk>
  80:	e1a00004 	mov	r0, r4
  84:	ebfffffe 	bl	0 <stringlength>
  88:	e596a054 	ldr	sl, [r6, #84]	; 0x54
  8c:	e35a0000 	cmp	sl, #0
  90:	e1a08000 	mov	r8, r0
  94:	1a00000e 	bne	d4 <sendnlmsg+0xa8>
  98:	e596209c 	ldr	r2, [r6, #156]	; 0x9c
  9c:	e5963098 	ldr	r3, [r6, #152]	; 0x98
  a0:	e0633002 	rsb	r3, r3, r2
  a4:	e3530e41 	cmp	r3, #1040	; 0x410
  a8:	ba000009 	blt	d4 <sendnlmsg+0xa8>
  ac:	e1a00006 	mov	r0, r6
  b0:	e3a01e41 	mov	r1, #1040	; 0x410
  b4:	ebfffffe 	bl	0 <skb_put>
  b8:	e3a03e41 	mov	r3, #1040	; 0x410
  bc:	e580a008 	str	sl, [r0, #8]
  c0:	e5803000 	str	r3, [r0]
  c4:	e1c0a0b4 	strh	sl, [r0, #4]
  c8:	e1c0a0b6 	strh	sl, [r0, #6]
  cc:	e580a00c 	str	sl, [r0, #12]
  d0:	ea000000 	b	d8 <sendnlmsg+0xac>
  d4:	e3a00000 	mov	r0, #0
  d8:	e2807010 	add	r7, r0, #16
  dc:	e2860018 	add	r0, r6, #24
  e0:	e3a03000 	mov	r3, #0
  e4:	e2882001 	add	r2, r8, #1
  e8:	e5803010 	str	r3, [r0, #16]
  ec:	e1a01004 	mov	r1, r4
  f0:	e580300c 	str	r3, [r0, #12]
  f4:	e1a00007 	mov	r0, r7
  f8:	e7c43008 	strb	r3, [r4, r8]
  fc:	ebfffffe 	bl	0 <memcpy>
 100:	e1a01007 	mov	r1, r7
 104:	e59f0028 	ldr	r0, [pc, #40]	; 134 <sendnlmsg+0x108>
 108:	ebfffffe 	bl	0 <printk>
 10c:	e59f0014 	ldr	r0, [pc, #20]	; 128 <sendnlmsg+0xfc>
 110:	e1a01006 	mov	r1, r6
 114:	e1a02005 	mov	r2, r5
 118:	e3a03040 	mov	r3, #64	; 0x40
 11c:	e5900000 	ldr	r0, [r0]
 120:	ebfffffe 	bl	0 <netlink_unicast>
 124:	e89dadf0 	ldm	sp, {r4, r5, r6, r7, r8, sl, fp, sp, pc}
 128:	00000000 	andeq	r0, r0, r0
 12c:	00000079 	andeq	r0, r0, r9, ror r0
 130:	00000084 	andeq	r0, r0, r4, lsl #1
 134:	000000a4 	andeq	r0, r0, r4, lsr #1

00000138 <nl_data_ready>:
 138:	e1a0c00d 	mov	ip, sp
 13c:	e92dd8f0 	push	{r4, r5, r6, r7, fp, ip, lr, pc}
 140:	e24cb004 	sub	fp, ip, #4
 144:	e24dd080 	sub	sp, sp, #128	; 0x80
 148:	e1a04000 	mov	r4, r0
 14c:	e59f00ac 	ldr	r0, [pc, #172]	; 200 <nl_data_ready+0xc8>
 150:	ebfffffe 	bl	0 <printk>
 154:	e28430ac 	add	r3, r4, #172	; 0xac
 158:	e1931f9f 	ldrex	r1, [r3]
 15c:	e2811001 	add	r1, r1, #1
 160:	e1832f91 	strex	r2, r1, [r3]
 164:	e3320000 	teq	r2, #0
 168:	1afffffa 	bne	158 <nl_data_ready+0x20>
 16c:	e5943050 	ldr	r3, [r4, #80]	; 0x50
 170:	e353000f 	cmp	r3, #15
 174:	9a00001f 	bls	1f8 <nl_data_ready+0xc0>
 178:	e59460a4 	ldr	r6, [r4, #164]	; 0xa4
 17c:	e24b709c 	sub	r7, fp, #156	; 0x9c
 180:	e3a02064 	mov	r2, #100	; 0x64
 184:	e3a0500a 	mov	r5, #10
 188:	e2861010 	add	r1, r6, #16
 18c:	e1a00007 	mov	r0, r7
 190:	ebfffffe 	bl	0 <memcpy>
 194:	e1a01007 	mov	r1, r7
 198:	e59f0064 	ldr	r0, [pc, #100]	; 204 <nl_data_ready+0xcc>
 19c:	ebfffffe 	bl	0 <printk>
 1a0:	e596700c 	ldr	r7, [r6, #12]
 1a4:	ea000009 	b	1d0 <nl_data_ready+0x98>
 1a8:	e3a03000 	mov	r3, #0
 1ac:	e526301c 	str	r3, [r6, #-28]!
 1b0:	e2860004 	add	r0, r6, #4
 1b4:	ebfffffe 	bl	0 <__init_waitqueue_head>
 1b8:	e3a01c03 	mov	r1, #768	; 0x300
 1bc:	e1a00006 	mov	r0, r6
 1c0:	ebfffffe 	bl	0 <wait_for_completion_timeout>
 1c4:	e59f003c 	ldr	r0, [pc, #60]	; 208 <nl_data_ready+0xd0>
 1c8:	e1a01007 	mov	r1, r7
 1cc:	ebfffffe 	bl	2c <sendnlmsg>
 1d0:	e2455001 	sub	r5, r5, #1
 1d4:	e59f3030 	ldr	r3, [pc, #48]	; 20c <nl_data_ready+0xd4>
 1d8:	e3750001 	cmn	r5, #1
 1dc:	e24b601c 	sub	r6, fp, #28
 1e0:	e2831004 	add	r1, r3, #4
 1e4:	1affffef 	bne	1a8 <nl_data_ready+0x70>
 1e8:	e3a02001 	mov	r2, #1
 1ec:	e1a00004 	mov	r0, r4
 1f0:	e5832004 	str	r2, [r3, #4]
 1f4:	ebfffffe 	bl	0 <kfree_skb>
 1f8:	e24bd01c 	sub	sp, fp, #28
 1fc:	e89da8f0 	ldm	sp, {r4, r5, r6, r7, fp, sp, pc}
 200:	000000c4 	andeq	r0, r0, r4, asr #1
 204:	000000d6 	ldrdeq	r0, [r0], -r6
 208:	000000eb 	andeq	r0, r0, fp, ror #1
 20c:	00000000 	andeq	r0, r0, r0

Disassembly of section .exit.text:

00000000 <cleanup_module>:
   0:	e1a0c00d 	mov	ip, sp
   4:	e92dd800 	push	{fp, ip, lr, pc}
   8:	e24cb004 	sub	fp, ip, #4
   c:	e59f3028 	ldr	r3, [pc, #40]	; 3c <cleanup_module+0x3c>
  10:	e5933000 	ldr	r3, [r3]
  14:	e3530000 	cmp	r3, #0
  18:	0a000001 	beq	24 <cleanup_module+0x24>
  1c:	e5930178 	ldr	r0, [r3, #376]	; 0x178
  20:	ebfffffe 	bl	0 <sock_release>
  24:	e59f0014 	ldr	r0, [pc, #20]	; 40 <cleanup_module+0x40>
  28:	ebfffffe 	bl	0 <printk>
  2c:	e3a03000 	mov	r3, #0
  30:	e3a02001 	mov	r2, #1
  34:	e5832000 	str	r2, [r3]
  38:	e89da800 	ldm	sp, {fp, sp, pc}
	...

Disassembly of section .init.text:

00000000 <init_module>:
   0:	e1a0c00d 	mov	ip, sp
   4:	e92dd810 	push	{r4, fp, ip, lr, pc}
   8:	e24cb004 	sub	fp, ip, #4
   c:	e24dd00c 	sub	sp, sp, #12
  10:	e59fc04c 	ldr	ip, [pc, #76]	; 64 <init_module+0x64>
  14:	e3a01019 	mov	r1, #25
  18:	e59f3048 	ldr	r3, [pc, #72]	; 68 <init_module+0x68>
  1c:	e3a02001 	mov	r2, #1
  20:	e59f0044 	ldr	r0, [pc, #68]	; 6c <init_module+0x6c>
  24:	e3a04000 	mov	r4, #0
  28:	e88d1010 	stm	sp, {r4, ip}
  2c:	ebfffffe 	bl	0 <netlink_kernel_create>
  30:	e59f3038 	ldr	r3, [pc, #56]	; 70 <init_module+0x70>
  34:	e1500004 	cmp	r0, r4
  38:	e5830000 	str	r0, [r3]
  3c:	1a000003 	bne	50 <init_module+0x50>
  40:	e59f002c 	ldr	r0, [pc, #44]	; 74 <init_module+0x74>
  44:	ebfffffe 	bl	0 <printk>
  48:	e3a00001 	mov	r0, #1
  4c:	ea000002 	b	5c <init_module+0x5c>
  50:	e59f0020 	ldr	r0, [pc, #32]	; 78 <init_module+0x78>
  54:	ebfffffe 	bl	0 <printk>
  58:	e1a00004 	mov	r0, r4
  5c:	e24bd010 	sub	sp, fp, #16
  60:	e89da810 	ldm	sp, {r4, fp, sp, pc}
	...
  74:	00000021 	andeq	r0, r0, r1, lsr #32
  78:	0000004f 	andeq	r0, r0, pc, asr #32

Disassembly of section __ksymtab_strings:

00000000 <__kstrtab_netlink_exit>:
   0:	6c74656e 	cfldr64vs	mvdx6, [r4], #-440	; 0xfffffe48
   4:	5f6b6e69 	svcpl	0x006b6e69
   8:	74697865 	strbtvc	r7, [r9], #-2149	; 0x865
	...

Disassembly of section .modinfo:

00000000 <__mod_license101>:
   0:	6563696c 	strbvs	r6, [r3, #-2412]!	; 0x96c
   4:	3d65736e 	stclcc	3, cr7, [r5, #-440]!	; 0xfffffe48
   8:	004c5047 	subeq	r5, ip, r7, asr #32

0000000c <__mod_author100>:
   c:	68747561 	ldmdavs	r4!, {r0, r5, r6, r8, sl, ip, sp, lr}^
  10:	7a3d726f 	bvc	f5c9d4 <nl_data_ready+0xf5c89c>
  14:	5f6f6168 	svcpl	0x006f6168
  18:	00000068 	andeq	r0, r0, r8, rrx

0000001c <__module_depends>:
  1c:	65706564 	ldrbvs	r6, [r0, #-1380]!	; 0x564
  20:	3d73646e 	cfldrdcc	mvd6, [r3, #-440]!	; 0xfffffe48
  24:	00000000 	andeq	r0, r0, r0

00000028 <__mod_vermagic5>:
  28:	6d726576 	cfldr64vs	mvdx6, [r2, #-472]!	; 0xfffffe28
  2c:	63696761 	cmnvs	r9, #25427968	; 0x1840000
  30:	362e323d 	undefined instruction 0x362e323d
  34:	2e35332e 	cdpcs	3, 3, cr3, cr5, cr14, {1}
  38:	72702037 	rsbsvc	r2, r0, #55	; 0x37
  3c:	706d6565 	rsbvc	r6, sp, r5, ror #10
  40:	6f6d2074 	svcvs	0x006d2074
  44:	6e755f64 	cdpvs	15, 7, cr5, cr5, cr4, {3}
  48:	64616f6c 	strbtvs	r6, [r1], #-3948	; 0xf6c
  4c:	4d524120 	ldfmie	f4, [r2, #-128]	; 0xffffff80
  50:	00203776 	eoreq	r3, r0, r6, ror r7

Disassembly of section __ksymtab:

00000000 <__ksymtab_netlink_exit>:
	...
